target datalayout = "e-m:e-p270:32:32-p271:32:32-p272:64:64-i64:64-i128:128-f80:128-n8:16:32:64-S128"
target triple = "x86_64-pc-linux-gnu"

%struct.FunctionCallInfoBaseData = type { ptr, ptr, ptr, i32, i8, i16, [0 x %struct.NullableDatum] }
%struct.NullableDatum = type { i64, i8 }
%struct.size_pretty_unit = type { ptr, i32, i8, i8 }

@.str.4 = private unnamed_addr constant [6 x i8] c"%s %s\00", align 1

; Function Attrs: inlinehint nounwind uwtable
define internal ptr @DatumGetCString(i64 noundef %0) #2 {
  %2 = alloca i64, align 8
  store i64 %0, ptr %2, align 8
  %3 = load i64, ptr %2, align 8
  %4 = call ptr @DatumGetPointer(i64 noundef %3)
  ret ptr %4
}

; Function Attrs: inlinehint nounwind uwtable
define internal zeroext i1 @DatumGetBool(i64 noundef %0) #2 {
  %2 = alloca i64, align 8
  store i64 %0, ptr %2, align 8
  %3 = load i64, ptr %2, align 8
  %4 = icmp ne i64 %3, 0
  ret i1 %4
}

; Function Attrs: inlinehint nounwind uwtable
define internal i64 @NumericGetDatum(ptr noundef %0) #2 {
  %2 = alloca ptr, align 8
  store ptr %0, ptr %2, align 8
  %3 = load ptr, ptr %2, align 8
  %4 = call i64 @PointerGetDatum(ptr noundef %3)
  ret i64 %4
}

; Function Attrs: inlinehint nounwind uwtable
define internal ptr @DatumGetPointer(i64 noundef %0) #2 {
  %2 = alloca i64, align 8
  store i64 %0, ptr %2, align 8
  %3 = load i64, ptr %2, align 8
  %4 = inttoptr i64 %3 to ptr
  ret ptr %4
}

; Function Attrs: inlinehint nounwind uwtable
define internal i64 @PointerGetDatum(ptr noundef %0) #2 {
  %2 = alloca ptr, align 8
  store ptr %0, ptr %2, align 8
  %3 = load ptr, ptr %2, align 8
  %4 = ptrtoint ptr %3 to i64
  ret i64 %4
}

; Function Attrs: nounwind uwtable
define internal ptr @numeric_truncated_divide(ptr noundef %0, i64 noundef %1) #0 {
  %3 = alloca ptr, align 8
  %4 = alloca i64, align 8
  %5 = alloca i64, align 8
  %6 = alloca i64, align 8
  %7 = alloca i64, align 8
  store ptr %0, ptr %3, align 8
  store i64 %1, ptr %4, align 8
  call void @llvm.lifetime.start.p0(i64 8, ptr %5) #10
  %8 = load ptr, ptr %3, align 8
  %9 = call i64 @NumericGetDatum(ptr noundef %8)
  store i64 %9, ptr %5, align 8
  call void @llvm.lifetime.start.p0(i64 8, ptr %6) #10
  call void @llvm.lifetime.start.p0(i64 8, ptr %7) #10
  %10 = load i64, ptr %4, align 8
  %11 = call ptr @int64_to_numeric(i64 noundef %10)
  %12 = call i64 @NumericGetDatum(ptr noundef %11)
  store i64 %12, ptr %6, align 8
  %13 = load i64, ptr %5, align 8
  %14 = load i64, ptr %6, align 8
  %15 = call i64 @DirectFunctionCall2Coll(ptr noundef @numeric_div_trunc, i32 noundef 0, i64 noundef %13, i64 noundef %14)
  store i64 %15, ptr %7, align 8
  %16 = load i64, ptr %7, align 8
  %17 = call ptr @DatumGetNumeric(i64 noundef %16)
  call void @llvm.lifetime.end.p0(i64 8, ptr %7) #10
  call void @llvm.lifetime.end.p0(i64 8, ptr %6) #10
  call void @llvm.lifetime.end.p0(i64 8, ptr %5) #10
  ret ptr %17
}

; Function Attrs: nounwind uwtable
define internal ptr @numeric_to_cstring(ptr noundef %0) #0 {
  %2 = alloca ptr, align 8
  %3 = alloca i64, align 8
  store ptr %0, ptr %2, align 8
  call void @llvm.lifetime.start.p0(i64 8, ptr %3) #10
  %4 = load ptr, ptr %2, align 8
  %5 = call i64 @NumericGetDatum(ptr noundef %4)
  store i64 %5, ptr %3, align 8
  %6 = load i64, ptr %3, align 8
  %7 = call i64 @DirectFunctionCall1Coll(ptr noundef @numeric_out, i32 noundef 0, i64 noundef %6)
  %8 = call ptr @DatumGetCString(i64 noundef %7)
  call void @llvm.lifetime.end.p0(i64 8, ptr %3) #10
  ret ptr %8
}

; Function Attrs: nounwind uwtable
define internal ptr @numeric_half_rounded(ptr noundef %0) #0 {
  %2 = alloca ptr, align 8
  %3 = alloca i64, align 8
  %4 = alloca i64, align 8
  %5 = alloca i64, align 8
  %6 = alloca i64, align 8
  %7 = alloca i64, align 8
  store ptr %0, ptr %2, align 8
  call void @llvm.lifetime.start.p0(i64 8, ptr %3) #10
  %8 = load ptr, ptr %2, align 8
  %9 = call i64 @NumericGetDatum(ptr noundef %8)
  store i64 %9, ptr %3, align 8
  call void @llvm.lifetime.start.p0(i64 8, ptr %4) #10
  call void @llvm.lifetime.start.p0(i64 8, ptr %5) #10
  call void @llvm.lifetime.start.p0(i64 8, ptr %6) #10
  call void @llvm.lifetime.start.p0(i64 8, ptr %7) #10
  %10 = call ptr @int64_to_numeric(i64 noundef 0)
  %11 = call i64 @NumericGetDatum(ptr noundef %10)
  store i64 %11, ptr %4, align 8
  %12 = call ptr @int64_to_numeric(i64 noundef 1)
  %13 = call i64 @NumericGetDatum(ptr noundef %12)
  store i64 %13, ptr %5, align 8
  %14 = call ptr @int64_to_numeric(i64 noundef 2)
  %15 = call i64 @NumericGetDatum(ptr noundef %14)
  store i64 %15, ptr %6, align 8
  %16 = load i64, ptr %3, align 8
  %17 = load i64, ptr %4, align 8
  %18 = call i64 @DirectFunctionCall2Coll(ptr noundef @numeric_ge, i32 noundef 0, i64 noundef %16, i64 noundef %17)
  %19 = call zeroext i1 @DatumGetBool(i64 noundef %18)
  br i1 %19, label %20, label %24

20:                                               ; preds = %1
  %21 = load i64, ptr %3, align 8
  %22 = load i64, ptr %5, align 8
  %23 = call i64 @DirectFunctionCall2Coll(ptr noundef @numeric_add, i32 noundef 0, i64 noundef %21, i64 noundef %22)
  store i64 %23, ptr %3, align 8
  br label %28

24:                                               ; preds = %1
  %25 = load i64, ptr %3, align 8
  %26 = load i64, ptr %5, align 8
  %27 = call i64 @DirectFunctionCall2Coll(ptr noundef @numeric_sub, i32 noundef 0, i64 noundef %25, i64 noundef %26)
  store i64 %27, ptr %3, align 8
  br label %28

28:                                               ; preds = %24, %20
  %29 = load i64, ptr %3, align 8
  %30 = load i64, ptr %6, align 8
  %31 = call i64 @DirectFunctionCall2Coll(ptr noundef @numeric_div_trunc, i32 noundef 0, i64 noundef %29, i64 noundef %30)
  store i64 %31, ptr %7, align 8
  %32 = load i64, ptr %7, align 8
  %33 = call ptr @DatumGetNumeric(i64 noundef %32)
  call void @llvm.lifetime.end.p0(i64 8, ptr %7) #10
  call void @llvm.lifetime.end.p0(i64 8, ptr %6) #10
  call void @llvm.lifetime.end.p0(i64 8, ptr %5) #10
  call void @llvm.lifetime.end.p0(i64 8, ptr %4) #10
  call void @llvm.lifetime.end.p0(i64 8, ptr %3) #10
  ret ptr %33
}

; Function Attrs: nounwind uwtable
define internal zeroext i1 @numeric_is_less(ptr noundef %0, ptr noundef %1) #0 {
  %3 = alloca ptr, align 8
  %4 = alloca ptr, align 8
  %5 = alloca i64, align 8
  %6 = alloca i64, align 8
  store ptr %0, ptr %3, align 8
  store ptr %1, ptr %4, align 8
  call void @llvm.lifetime.start.p0(i64 8, ptr %5) #10
  %7 = load ptr, ptr %3, align 8
  %8 = call i64 @NumericGetDatum(ptr noundef %7)
  store i64 %8, ptr %5, align 8
  call void @llvm.lifetime.start.p0(i64 8, ptr %6) #10
  %9 = load ptr, ptr %4, align 8
  %10 = call i64 @NumericGetDatum(ptr noundef %9)
  store i64 %10, ptr %6, align 8
  %11 = load i64, ptr %5, align 8
  %12 = load i64, ptr %6, align 8
  %13 = call i64 @DirectFunctionCall2Coll(ptr noundef @numeric_lt, i32 noundef 0, i64 noundef %11, i64 noundef %12)
  %14 = call zeroext i1 @DatumGetBool(i64 noundef %13)
  call void @llvm.lifetime.end.p0(i64 8, ptr %6) #10
  call void @llvm.lifetime.end.p0(i64 8, ptr %5) #10
  ret i1 %14
}

; Function Attrs: nounwind uwtable
define internal ptr @numeric_absolute(ptr noundef %0) #0 {
  %2 = alloca ptr, align 8
  %3 = alloca i64, align 8
  %4 = alloca i64, align 8
  store ptr %0, ptr %2, align 8
  call void @llvm.lifetime.start.p0(i64 8, ptr %3) #10
  %5 = load ptr, ptr %2, align 8
  %6 = call i64 @NumericGetDatum(ptr noundef %5)
  store i64 %6, ptr %3, align 8
  call void @llvm.lifetime.start.p0(i64 8, ptr %4) #10
  %7 = load i64, ptr %3, align 8
  %8 = call i64 @DirectFunctionCall1Coll(ptr noundef @numeric_abs, i32 noundef 0, i64 noundef %7)
  store i64 %8, ptr %4, align 8
  %9 = load i64, ptr %4, align 8
  %10 = call ptr @DatumGetNumeric(i64 noundef %9)
  call void @llvm.lifetime.end.p0(i64 8, ptr %4) #10
  call void @llvm.lifetime.end.p0(i64 8, ptr %3) #10
  ret ptr %10
}

; Function Attrs: inlinehint nounwind uwtable
define internal ptr @DatumGetNumeric(i64 noundef %0) #2 {
  %2 = alloca i64, align 8
  store i64 %0, ptr %2, align 8
  %3 = load i64, ptr %2, align 8
  %4 = call ptr @DatumGetPointer(i64 noundef %3)
  %5 = call ptr @pg_detoast_datum(ptr noundef %4)
  ret ptr %5
}

; Function Attrs: nounwind uwtable
define dso_local i64 @pg_size_pretty_numeric(ptr noundef %0) #0 {
  %2 = alloca ptr, align 8
  %3 = alloca ptr, align 8
  %4 = alloca ptr, align 8
  %5 = alloca ptr, align 8
  %6 = alloca i32, align 4
  %7 = alloca i32, align 4
  store ptr %0, ptr %2, align 8
  call void @llvm.lifetime.start.p0(i64 8, ptr %3) #10
  %8 = load ptr, ptr %2, align 8
  %9 = getelementptr inbounds nuw %struct.FunctionCallInfoBaseData, ptr %8, i32 0, i32 6
  %10 = getelementptr inbounds [0 x %struct.NullableDatum], ptr %9, i64 0, i64 0
  %11 = getelementptr inbounds nuw %struct.NullableDatum, ptr %10, i32 0, i32 0
  %12 = load i64, ptr %11, align 8
  %13 = call ptr @DatumGetNumeric(i64 noundef %12)
  store ptr %13, ptr %3, align 8
  call void @llvm.lifetime.start.p0(i64 8, ptr %4) #10
  store ptr null, ptr %4, align 8
  call void @llvm.lifetime.start.p0(i64 8, ptr %5) #10
  store ptr @size_pretty_units, ptr %5, align 8
  br label %14

14:                                               ; preds = %85, %1
  %15 = load ptr, ptr %5, align 8
  %16 = getelementptr inbounds nuw %struct.size_pretty_unit, ptr %15, i32 0, i32 0
  %17 = load ptr, ptr %16, align 8
  %18 = icmp ne ptr %17, null
  br i1 %18, label %19, label %88

19:                                               ; preds = %14
  call void @llvm.lifetime.start.p0(i64 4, ptr %6) #10
  %20 = load ptr, ptr %5, align 8
  %21 = getelementptr inbounds %struct.size_pretty_unit, ptr %20, i64 1
  %22 = getelementptr inbounds nuw %struct.size_pretty_unit, ptr %21, i32 0, i32 0
  %23 = load ptr, ptr %22, align 8
  %24 = icmp eq ptr %23, null
  br i1 %24, label %34, label %25

25:                                               ; preds = %19
  %26 = load ptr, ptr %3, align 8
  %27 = call ptr @numeric_absolute(ptr noundef %26)
  %28 = load ptr, ptr %5, align 8
  %29 = getelementptr inbounds nuw %struct.size_pretty_unit, ptr %28, i32 0, i32 1
  %30 = load i32, ptr %29, align 8
  %31 = zext i32 %30 to i64
  %32 = call ptr @int64_to_numeric(i64 noundef %31)
  %33 = call zeroext i1 @numeric_is_less(ptr noundef %27, ptr noundef %32)
  br i1 %33, label %34, label %49

34:                                               ; preds = %25, %19
  %35 = load ptr, ptr %5, align 8
  %36 = getelementptr inbounds nuw %struct.size_pretty_unit, ptr %35, i32 0, i32 2
  %37 = load i8, ptr %36, align 4, !range !8, !noundef !9
  %38 = trunc i8 %37 to i1
  br i1 %38, label %39, label %42

39:                                               ; preds = %34
  %40 = load ptr, ptr %3, align 8
  %41 = call ptr @numeric_half_rounded(ptr noundef %40)
  store ptr %41, ptr %3, align 8
  br label %42

42:                                               ; preds = %39, %34
  %43 = load ptr, ptr %3, align 8
  %44 = call ptr @numeric_to_cstring(ptr noundef %43)
  %45 = load ptr, ptr %5, align 8
  %46 = getelementptr inbounds nuw %struct.size_pretty_unit, ptr %45, i32 0, i32 0
  %47 = load ptr, ptr %46, align 8
  %48 = call ptr (ptr, ...) @psprintf(ptr noundef @.str.4, ptr noundef %44, ptr noundef %47)
  store ptr %48, ptr %4, align 8
  store i32 2, ptr %7, align 4
  br label %82

49:                                               ; preds = %25
  %50 = load ptr, ptr %5, align 8
  %51 = getelementptr inbounds %struct.size_pretty_unit, ptr %50, i64 1
  %52 = getelementptr inbounds nuw %struct.size_pretty_unit, ptr %51, i32 0, i32 3
  %53 = load i8, ptr %52, align 1
  %54 = zext i8 %53 to i32
  %55 = load ptr, ptr %5, align 8
  %56 = getelementptr inbounds nuw %struct.size_pretty_unit, ptr %55, i32 0, i32 3
  %57 = load i8, ptr %56, align 1
  %58 = zext i8 %57 to i32
  %59 = sub i32 %54, %58
  %60 = load ptr, ptr %5, align 8
  %61 = getelementptr inbounds %struct.size_pretty_unit, ptr %60, i64 1
  %62 = getelementptr inbounds nuw %struct.size_pretty_unit, ptr %61, i32 0, i32 2
  %63 = load i8, ptr %62, align 4, !range !8, !noundef !9
  %64 = trunc i8 %63 to i1
  %65 = zext i1 %64 to i32
  %66 = icmp eq i32 %65, 1
  %67 = zext i1 %66 to i32
  %68 = sub i32 %59, %67
  %69 = load ptr, ptr %5, align 8
  %70 = getelementptr inbounds nuw %struct.size_pretty_unit, ptr %69, i32 0, i32 2
  %71 = load i8, ptr %70, align 4, !range !8, !noundef !9
  %72 = trunc i8 %71 to i1
  %73 = zext i1 %72 to i32
  %74 = icmp eq i32 %73, 1
  %75 = zext i1 %74 to i32
  %76 = add i32 %68, %75
  store i32 %76, ptr %6, align 4
  %77 = load ptr, ptr %3, align 8
  %78 = load i32, ptr %6, align 4
  %79 = zext i32 %78 to i64
  %80 = shl i64 1, %79
  %81 = call ptr @numeric_truncated_divide(ptr noundef %77, i64 noundef %80)
  store ptr %81, ptr %3, align 8
  store i32 0, ptr %7, align 4
  br label %82

82:                                               ; preds = %49, %42
  call void @llvm.lifetime.end.p0(i64 4, ptr %6) #10
  %83 = load i32, ptr %7, align 4
  switch i32 %83, label %92 [
    i32 0, label %84
    i32 2, label %88
  ]

84:                                               ; preds = %82
  br label %85

85:                                               ; preds = %84
  %86 = load ptr, ptr %5, align 8
  %87 = getelementptr inbounds nuw %struct.size_pretty_unit, ptr %86, i32 1
  store ptr %87, ptr %5, align 8
  br label %14, !llvm.loop !13

88:                                               ; preds = %82, %14
  %89 = load ptr, ptr %4, align 8
  %90 = call ptr @cstring_to_text(ptr noundef %89)
  %91 = call i64 @PointerGetDatum(ptr noundef %90)
  store i32 1, ptr %7, align 4
  call void @llvm.lifetime.end.p0(i64 8, ptr %5) #10
  call void @llvm.lifetime.end.p0(i64 8, ptr %4) #10
  call void @llvm.lifetime.end.p0(i64 8, ptr %3) #10
  ret i64 %91

92:                                               ; preds = %82
  unreachable
}