; Function Attrs: nounwind uwtable
define dso_local i64 @pg_size_pretty_numeric(ptr noundef readonly captures(none) %0) local_unnamed_addr #0 {
  %2 = getelementptr inbounds nuw i8, ptr %0, i64 32
  %3 = load i64, ptr %2, align 8
  %4 = inttoptr i64 %3 to ptr
  %5 = tail call ptr @pg_detoast_datum(ptr noundef %4) #9
  br label %6

6:                                                ; preds = %1, %39
  %7 = phi ptr [ @.str.23, %1 ], [ %63, %39 ]
  %8 = phi ptr [ getelementptr inbounds nuw (i8, ptr @size_pretty_units, i64 16), %1 ], [ %62, %39 ]
  %9 = phi ptr [ %5, %1 ], [ %61, %39 ]
  %.0183239 = phi ptr [ @size_pretty_units, %1 ], [ %8, %39 ]
  %10 = phi ptr [ @.str.22, %1 ], [ %7, %39 ]
  %11 = ptrtoint ptr %9 to i64
  %12 = tail call i64 @DirectFunctionCall1Coll(ptr noundef nonnull @numeric_abs, i32 noundef 0, i64 noundef %11) #9
  %13 = inttoptr i64 %12 to ptr
  %14 = tail call ptr @pg_detoast_datum(ptr noundef %13) #9
  %15 = getelementptr inbounds nuw i8, ptr %.0183239, i64 8
  %16 = load i32, ptr %15, align 8
  %17 = zext i32 %16 to i64
  %18 = tail call ptr @int64_to_numeric(i64 noundef %17) #9
  %19 = ptrtoint ptr %14 to i64
  %20 = ptrtoint ptr %18 to i64
  %21 = tail call i64 @DirectFunctionCall2Coll(ptr noundef nonnull @numeric_lt, i32 noundef 0, i64 noundef %19, i64 noundef %20) #9
  %.not26 = icmp eq i64 %21, 0
  br i1 %.not26, label %39, label %22

22:                                               ; preds = %6, %39
  %.lcssa38 = phi ptr [ %10, %6 ], [ %7, %39 ]
  %.01832.lcssa = phi ptr [ %.0183239, %6 ], [ %8, %39 ]
  %.lcssa = phi ptr [ %9, %6 ], [ %61, %39 ]
  %23 = getelementptr inbounds nuw i8, ptr %.01832.lcssa, i64 12
  %24 = load i8, ptr %23, align 4, !range !11, !noundef !12
  %25 = trunc nuw i8 %24 to i1
  br i1 %25, label %26, label %.loopexit

26:                                               ; preds = %22
  %27 = ptrtoint ptr %.lcssa to i64
  %28 = tail call ptr @int64_to_numeric(i64 noundef 0) #9
  %29 = ptrtoint ptr %28 to i64
  %30 = tail call ptr @int64_to_numeric(i64 noundef 1) #9
  %31 = ptrtoint ptr %30 to i64
  %32 = tail call ptr @int64_to_numeric(i64 noundef 2) #9
  %33 = tail call i64 @DirectFunctionCall2Coll(ptr noundef nonnull @numeric_ge, i32 noundef 0, i64 noundef %27, i64 noundef %29) #9
  %.not.i = icmp eq i64 %33, 0
  %numeric_sub.numeric_add.i = select i1 %.not.i, ptr @numeric_sub, ptr @numeric_add
  %34 = tail call i64 @DirectFunctionCall2Coll(ptr noundef nonnull %numeric_sub.numeric_add.i, i32 noundef 0, i64 noundef %27, i64 noundef %31) #9
  %35 = ptrtoint ptr %32 to i64
  %36 = tail call i64 @DirectFunctionCall2Coll(ptr noundef nonnull @numeric_div_trunc, i32 noundef 0, i64 noundef %34, i64 noundef %35) #9
  %37 = inttoptr i64 %36 to ptr
  %38 = tail call ptr @pg_detoast_datum(ptr noundef %37) #9
  br label %.loopexit

39:                                               ; preds = %6
  %40 = getelementptr inbounds nuw i8, ptr %.0183239, i64 29
  %41 = load i8, ptr %40, align 1
  %42 = zext i8 %41 to i64
  %43 = getelementptr inbounds nuw i8, ptr %.0183239, i64 13
  %44 = load i8, ptr %43, align 1
  %45 = zext i8 %44 to i64
  %46 = getelementptr inbounds nuw i8, ptr %.0183239, i64 28
  %47 = load i8, ptr %46, align 4, !range !11, !noundef !12
  %48 = zext nneg i8 %47 to i64
  %49 = getelementptr inbounds nuw i8, ptr %.0183239, i64 12
  %50 = load i8, ptr %49, align 4, !range !11, !noundef !12
  %51 = zext nneg i8 %50 to i64
  %52 = add nuw nsw i64 %45, %48
  %53 = sub nsw i64 %42, %52
  %54 = add nsw i64 %53, %51
  %55 = and i64 %54, 4294967295
  %56 = shl nuw i64 1, %55
  %57 = tail call ptr @int64_to_numeric(i64 noundef %56) #9
  %58 = ptrtoint ptr %57 to i64
  %59 = tail call i64 @DirectFunctionCall2Coll(ptr noundef nonnull @numeric_div_trunc, i32 noundef 0, i64 noundef %11, i64 noundef %58) #9
  %60 = inttoptr i64 %59 to ptr
  %61 = tail call ptr @pg_detoast_datum(ptr noundef %60) #9
  %62 = getelementptr inbounds nuw i8, ptr %8, i64 16
  %63 = load ptr, ptr %62, align 8
  %64 = icmp eq ptr %63, null
  br i1 %64, label %22, label %6

.loopexit:                                        ; preds = %26, %22
  %.1 = phi ptr [ %38, %26 ], [ %.lcssa, %22 ]
  %65 = ptrtoint ptr %.1 to i64
  %66 = tail call i64 @DirectFunctionCall1Coll(ptr noundef nonnull @numeric_out, i32 noundef 0, i64 noundef %65) #9
  %67 = inttoptr i64 %66 to ptr
  %68 = tail call ptr (ptr, ...) @psprintf(ptr noundef nonnull @.str.4, ptr noundef %67, ptr noundef nonnull %.lcssa38) #9
  %69 = tail call ptr @cstring_to_text(ptr noundef %68) #9
  %70 = ptrtoint ptr %69 to i64
  ret i64 %70
}